
/home/ubuntu/tinyriscv/tests/riscv-compliance/build_generated/rv32i/I-ENDIANESS-01.elf:     file format elf32-littleriscv


Disassembly of section .text.init:

00000000 <_start>:
   0:	0480006f          	j	48 <reset_vector>

00000004 <trap_vector>:
   4:	34202f73          	csrr	t5,mcause
   8:	00800f93          	li	t6,8
   c:	03ff0863          	beq	t5,t6,3c <write_tohost>
  10:	00900f93          	li	t6,9
  14:	03ff0463          	beq	t5,t6,3c <write_tohost>
  18:	00b00f93          	li	t6,11
  1c:	03ff0063          	beq	t5,t6,3c <write_tohost>
  20:	00000f13          	li	t5,0
  24:	000f0463          	beqz	t5,2c <trap_vector+0x28>
  28:	000f0067          	jr	t5
  2c:	34202f73          	csrr	t5,mcause
  30:	000f5463          	bgez	t5,38 <handle_exception>
  34:	0040006f          	j	38 <handle_exception>

00000038 <handle_exception>:
  38:	5391e193          	ori	gp,gp,1337

0000003c <write_tohost>:
  3c:	00001f17          	auipc	t5,0x1
  40:	fc3f2223          	sw	gp,-60(t5) # 1000 <tohost>
  44:	ff9ff06f          	j	3c <write_tohost>

00000048 <reset_vector>:
  48:	00000193          	li	gp,0
  4c:	00000297          	auipc	t0,0x0
  50:	fb828293          	addi	t0,t0,-72 # 4 <trap_vector>
  54:	30529073          	csrw	mtvec,t0
  58:	30005073          	csrwi	mstatus,0
  5c:	00000297          	auipc	t0,0x0
  60:	02028293          	addi	t0,t0,32 # 7c <begin_testcode>
  64:	34129073          	csrw	mepc,t0
  68:	00000293          	li	t0,0
  6c:	20000337          	lui	t1,0x20000
  70:	01030313          	addi	t1,t1,16 # 20000010 <_end+0x1fffde0c>
  74:	00532023          	sw	t0,0(t1)
  78:	30200073          	mret

0000007c <begin_testcode>:
  7c:	00002817          	auipc	a6,0x2
  80:	f8880813          	addi	a6,a6,-120 # 2004 <test_A_data>
  84:	00002897          	auipc	a7,0x2
  88:	f8c88893          	addi	a7,a7,-116 # 2010 <begin_signature>
  8c:	00082083          	lw	ra,0(a6)
  90:	00085103          	lhu	sp,0(a6)
  94:	00285183          	lhu	gp,2(a6)
  98:	fff84203          	lbu	tp,-1(a6)
  9c:	00084283          	lbu	t0,0(a6)
  a0:	00184303          	lbu	t1,1(a6)
  a4:	00284383          	lbu	t2,2(a6)
  a8:	00384403          	lbu	s0,3(a6)
  ac:	0018a023          	sw	ra,0(a7)
  b0:	0028a223          	sw	sp,4(a7)
  b4:	0038a423          	sw	gp,8(a7)
  b8:	0048a623          	sw	tp,12(a7)
  bc:	0058a823          	sw	t0,16(a7)
  c0:	0068aa23          	sw	t1,20(a7)
  c4:	0078ac23          	sw	t2,24(a7)
  c8:	0088ae23          	sw	s0,28(a7)
  cc:	00002297          	auipc	t0,0x2
  d0:	f4428293          	addi	t0,t0,-188 # 2010 <begin_signature>
  d4:	20000337          	lui	t1,0x20000
  d8:	00830313          	addi	t1,t1,8 # 20000008 <_end+0x1fffde04>
  dc:	00532023          	sw	t0,0(t1)
  e0:	00002297          	auipc	t0,0x2
  e4:	f5028293          	addi	t0,t0,-176 # 2030 <end_signature>
  e8:	20000337          	lui	t1,0x20000
  ec:	00c30313          	addi	t1,t1,12 # 2000000c <_end+0x1fffde08>
  f0:	00532023          	sw	t0,0(t1)
  f4:	00100293          	li	t0,1
  f8:	20000337          	lui	t1,0x20000
  fc:	01030313          	addi	t1,t1,16 # 20000010 <_end+0x1fffde0c>
 100:	00532023          	sw	t0,0(t1)
 104:	00000013          	nop
 108:	00100193          	li	gp,1
 10c:	00000073          	ecall

00000110 <end_testcode>:
 110:	c0001073          	unimp
	...

Disassembly of section .tohost:

00001000 <tohost>:
	...

00001100 <fromhost>:
	...
