
/home/ubuntu/tinyriscv/tests/riscv-compliance/build_generated/rv32i/I-SRA-01.elf:     file format elf32-littleriscv


Disassembly of section .text.init:

00000000 <_start>:
   0:	0480006f          	j	48 <reset_vector>

00000004 <trap_vector>:
   4:	34202f73          	csrr	t5,mcause
   8:	00800f93          	li	t6,8
   c:	03ff0863          	beq	t5,t6,3c <write_tohost>
  10:	00900f93          	li	t6,9
  14:	03ff0463          	beq	t5,t6,3c <write_tohost>
  18:	00b00f93          	li	t6,11
  1c:	03ff0063          	beq	t5,t6,3c <write_tohost>
  20:	00000f13          	li	t5,0
  24:	000f0463          	beqz	t5,2c <trap_vector+0x28>
  28:	000f0067          	jr	t5
  2c:	34202f73          	csrr	t5,mcause
  30:	000f5463          	bgez	t5,38 <handle_exception>
  34:	0040006f          	j	38 <handle_exception>

00000038 <handle_exception>:
  38:	5391e193          	ori	gp,gp,1337

0000003c <write_tohost>:
  3c:	00001f17          	auipc	t5,0x1
  40:	fc3f2223          	sw	gp,-60(t5) # 1000 <tohost>
  44:	ff9ff06f          	j	3c <write_tohost>

00000048 <reset_vector>:
  48:	00000193          	li	gp,0
  4c:	00000297          	auipc	t0,0x0
  50:	fb828293          	addi	t0,t0,-72 # 4 <trap_vector>
  54:	30529073          	csrw	mtvec,t0
  58:	30005073          	csrwi	mstatus,0
  5c:	00000297          	auipc	t0,0x0
  60:	02028293          	addi	t0,t0,32 # 7c <begin_testcode>
  64:	34129073          	csrw	mepc,t0
  68:	00000293          	li	t0,0
  6c:	20000337          	lui	t1,0x20000
  70:	01030313          	addi	t1,t1,16 # 20000010 <_end+0x1fffde0c>
  74:	00532023          	sw	t0,0(t1)
  78:	30200073          	mret

0000007c <begin_testcode>:
  7c:	00002297          	auipc	t0,0x2
  80:	f8428293          	addi	t0,t0,-124 # 2000 <begin_signature>
  84:	fff00f93          	li	t6,-1
  88:	00000813          	li	a6,0
  8c:	410fd033          	sra	zero,t6,a6
  90:	0002a023          	sw	zero,0(t0)
  94:	00100f13          	li	t5,1
  98:	00000793          	li	a5,0
  9c:	40ff50b3          	sra	ra,t5,a5
  a0:	0012a223          	sw	ra,4(t0)
  a4:	00000e93          	li	t4,0
  a8:	00100713          	li	a4,1
  ac:	40eed133          	sra	sp,t4,a4
  b0:	0022a423          	sw	sp,8(t0)
  b4:	7ff00e13          	li	t3,2047
  b8:	00400693          	li	a3,4
  bc:	40de51b3          	sra	gp,t3,a3
  c0:	0032a623          	sw	gp,12(t0)
  c4:	00000d93          	li	s11,0
  c8:	00800613          	li	a2,8
  cc:	40cdd233          	sra	tp,s11,a2
  d0:	0042a823          	sw	tp,16(t0)
  d4:	00002097          	auipc	ra,0x2
  d8:	f4008093          	addi	ra,ra,-192 # 2014 <test_2_res>
  dc:	00001d37          	lui	s10,0x1
  e0:	800d0d13          	addi	s10,s10,-2048 # 800 <end_testcode+0x4e0>
  e4:	01f00593          	li	a1,31
  e8:	40bd52b3          	sra	t0,s10,a1
  ec:	0050a023          	sw	t0,0(ra)
  f0:	07654cb7          	lui	s9,0x7654
  f4:	321c8c93          	addi	s9,s9,801 # 7654321 <_end+0x765211d>
  f8:	01000513          	li	a0,16
  fc:	40acd333          	sra	t1,s9,a0
 100:	0060a223          	sw	t1,4(ra)
 104:	80000c37          	lui	s8,0x80000
 108:	fffc0c13          	addi	s8,s8,-1 # 7fffffff <_end+0x7fffddfb>
 10c:	00100493          	li	s1,1
 110:	409c53b3          	sra	t2,s8,s1
 114:	0070a423          	sw	t2,8(ra)
 118:	00100b93          	li	s7,1
 11c:	00000413          	li	s0,0
 120:	408bd433          	sra	s0,s7,s0
 124:	0080a623          	sw	s0,12(ra)
 128:	fff00b13          	li	s6,-1
 12c:	00000393          	li	t2,0
 130:	407b54b3          	sra	s1,s6,t2
 134:	0090a823          	sw	s1,16(ra)
 138:	00002097          	auipc	ra,0x2
 13c:	ef008093          	addi	ra,ra,-272 # 2028 <test_3_res>
 140:	00001ab7          	lui	s5,0x1
 144:	234a8a93          	addi	s5,s5,564 # 1234 <fromhost+0x134>
 148:	00100313          	li	t1,1
 14c:	406ad533          	sra	a0,s5,t1
 150:	00a0a023          	sw	a0,0(ra)
 154:	80000a37          	lui	s4,0x80000
 158:	00400293          	li	t0,4
 15c:	405a55b3          	sra	a1,s4,t0
 160:	00b0a223          	sw	a1,4(ra)
 164:	fffff9b7          	lui	s3,0xfffff
 168:	dcc98993          	addi	s3,s3,-564 # ffffedcc <_end+0xffffcbc8>
 16c:	00800213          	li	tp,8
 170:	4049d633          	sra	a2,s3,tp
 174:	00c0a423          	sw	a2,8(ra)
 178:	fff00913          	li	s2,-1
 17c:	01f00193          	li	gp,31
 180:	403956b3          	sra	a3,s2,gp
 184:	00d0a623          	sw	a3,12(ra)
 188:	80100893          	li	a7,-2047
 18c:	01000113          	li	sp,16
 190:	4028d733          	sra	a4,a7,sp
 194:	00e0a823          	sw	a4,16(ra)
 198:	00002117          	auipc	sp,0x2
 19c:	ea410113          	addi	sp,sp,-348 # 203c <test_4_res>
 1a0:	00000813          	li	a6,0
 1a4:	00100093          	li	ra,1
 1a8:	401857b3          	sra	a5,a6,ra
 1ac:	00f12023          	sw	a5,0(sp)
 1b0:	fff00793          	li	a5,-1
 1b4:	00000013          	nop
 1b8:	4007d833          	sra	a6,a5,zero
 1bc:	01012223          	sw	a6,4(sp)
 1c0:	00100713          	li	a4,1
 1c4:	00000f93          	li	t6,0
 1c8:	41f758b3          	sra	a7,a4,t6
 1cc:	01112423          	sw	a7,8(sp)
 1d0:	00000693          	li	a3,0
 1d4:	00100f13          	li	t5,1
 1d8:	41e6d933          	sra	s2,a3,t5
 1dc:	01212623          	sw	s2,12(sp)
 1e0:	7ff00613          	li	a2,2047
 1e4:	00400e93          	li	t4,4
 1e8:	41d659b3          	sra	s3,a2,t4
 1ec:	01312823          	sw	s3,16(sp)
 1f0:	00002097          	auipc	ra,0x2
 1f4:	e6008093          	addi	ra,ra,-416 # 2050 <test_5_res>
 1f8:	00000593          	li	a1,0
 1fc:	00800e13          	li	t3,8
 200:	41c5da33          	sra	s4,a1,t3
 204:	0140a023          	sw	s4,0(ra)
 208:	00001537          	lui	a0,0x1
 20c:	80050513          	addi	a0,a0,-2048 # 800 <end_testcode+0x4e0>
 210:	01f00d93          	li	s11,31
 214:	41b55ab3          	sra	s5,a0,s11
 218:	0150a223          	sw	s5,4(ra)
 21c:	076544b7          	lui	s1,0x7654
 220:	32148493          	addi	s1,s1,801 # 7654321 <_end+0x765211d>
 224:	01000d13          	li	s10,16
 228:	41a4db33          	sra	s6,s1,s10
 22c:	0160a423          	sw	s6,8(ra)
 230:	80000437          	lui	s0,0x80000
 234:	fff40413          	addi	s0,s0,-1 # 7fffffff <_end+0x7fffddfb>
 238:	00100c93          	li	s9,1
 23c:	41945bb3          	sra	s7,s0,s9
 240:	0170a623          	sw	s7,12(ra)
 244:	00100393          	li	t2,1
 248:	00000c13          	li	s8,0
 24c:	4183dc33          	sra	s8,t2,s8
 250:	0180a823          	sw	s8,16(ra)
 254:	00002097          	auipc	ra,0x2
 258:	e1008093          	addi	ra,ra,-496 # 2064 <test_6_res>
 25c:	fff00313          	li	t1,-1
 260:	00000b93          	li	s7,0
 264:	41735cb3          	sra	s9,t1,s7
 268:	0190a023          	sw	s9,0(ra)
 26c:	000012b7          	lui	t0,0x1
 270:	23428293          	addi	t0,t0,564 # 1234 <fromhost+0x134>
 274:	00100b13          	li	s6,1
 278:	4162dd33          	sra	s10,t0,s6
 27c:	01a0a223          	sw	s10,4(ra)
 280:	80000237          	lui	tp,0x80000
 284:	00400a93          	li	s5,4
 288:	41525db3          	sra	s11,tp,s5
 28c:	01b0a423          	sw	s11,8(ra)
 290:	fffff1b7          	lui	gp,0xfffff
 294:	dcc18193          	addi	gp,gp,-564 # ffffedcc <_end+0xffffcbc8>
 298:	00800a13          	li	s4,8
 29c:	4141de33          	sra	t3,gp,s4
 2a0:	01c0a623          	sw	t3,12(ra)
 2a4:	fff00113          	li	sp,-1
 2a8:	01f00993          	li	s3,31
 2ac:	41315eb3          	sra	t4,sp,s3
 2b0:	01d0a823          	sw	t4,16(ra)
 2b4:	00002117          	auipc	sp,0x2
 2b8:	dc410113          	addi	sp,sp,-572 # 2078 <test_7_res>
 2bc:	80100093          	li	ra,-2047
 2c0:	01000913          	li	s2,16
 2c4:	4120df33          	sra	t5,ra,s2
 2c8:	01e12023          	sw	t5,0(sp)
 2cc:	00000013          	nop
 2d0:	00100893          	li	a7,1
 2d4:	41105fb3          	sra	t6,zero,a7
 2d8:	01f12223          	sw	t6,4(sp)
 2dc:	00002297          	auipc	t0,0x2
 2e0:	d2428293          	addi	t0,t0,-732 # 2000 <begin_signature>
 2e4:	20000337          	lui	t1,0x20000
 2e8:	00830313          	addi	t1,t1,8 # 20000008 <_end+0x1fffde04>
 2ec:	00532023          	sw	t0,0(t1)
 2f0:	00002297          	auipc	t0,0x2
 2f4:	da028293          	addi	t0,t0,-608 # 2090 <end_signature>
 2f8:	20000337          	lui	t1,0x20000
 2fc:	00c30313          	addi	t1,t1,12 # 2000000c <_end+0x1fffde08>
 300:	00532023          	sw	t0,0(t1)
 304:	00100293          	li	t0,1
 308:	20000337          	lui	t1,0x20000
 30c:	01030313          	addi	t1,t1,16 # 20000010 <_end+0x1fffde0c>
 310:	00532023          	sw	t0,0(t1)
 314:	00000013          	nop
 318:	00100193          	li	gp,1
 31c:	00000073          	ecall

00000320 <end_testcode>:
 320:	c0001073          	unimp
	...

Disassembly of section .tohost:

00001000 <tohost>:
	...

00001100 <fromhost>:
	...
