
generated/rv32um-p-divu:     file format elf32-littleriscv


Disassembly of section .text.init:

00000000 <_start>:
   0:	10005073          	csrwi	sstatus,0

00000004 <test_2>:
   4:	01400093          	li	ra,20
   8:	00600113          	li	sp,6
   c:	0220df33          	divu	t5,ra,sp
  10:	00300e93          	li	t4,3
  14:	00200193          	li	gp,2
  18:	0ddf1663          	bne	t5,t4,e4 <fail>

0000001c <test_3>:
  1c:	fec00093          	li	ra,-20
  20:	00600113          	li	sp,6
  24:	0220df33          	divu	t5,ra,sp
  28:	2aaabeb7          	lui	t4,0x2aaab
  2c:	aa7e8e93          	addi	t4,t4,-1369 # 2aaaaaa7 <begin_signature+0x2aaa9aa7>
  30:	00300193          	li	gp,3
  34:	0bdf1863          	bne	t5,t4,e4 <fail>

00000038 <test_4>:
  38:	01400093          	li	ra,20
  3c:	ffa00113          	li	sp,-6
  40:	0220df33          	divu	t5,ra,sp
  44:	00000e93          	li	t4,0
  48:	00400193          	li	gp,4
  4c:	09df1c63          	bne	t5,t4,e4 <fail>

00000050 <test_5>:
  50:	fec00093          	li	ra,-20
  54:	ffa00113          	li	sp,-6
  58:	0220df33          	divu	t5,ra,sp
  5c:	00000e93          	li	t4,0
  60:	00500193          	li	gp,5
  64:	09df1063          	bne	t5,t4,e4 <fail>

00000068 <test_6>:
  68:	800000b7          	lui	ra,0x80000
  6c:	00100113          	li	sp,1
  70:	0220df33          	divu	t5,ra,sp
  74:	80000eb7          	lui	t4,0x80000
  78:	00600193          	li	gp,6
  7c:	07df1463          	bne	t5,t4,e4 <fail>

00000080 <test_7>:
  80:	800000b7          	lui	ra,0x80000
  84:	fff00113          	li	sp,-1
  88:	0220df33          	divu	t5,ra,sp
  8c:	00000e93          	li	t4,0
  90:	00700193          	li	gp,7
  94:	05df1863          	bne	t5,t4,e4 <fail>

00000098 <test_8>:
  98:	800000b7          	lui	ra,0x80000
  9c:	00000113          	li	sp,0
  a0:	0220df33          	divu	t5,ra,sp
  a4:	fff00e93          	li	t4,-1
  a8:	00800193          	li	gp,8
  ac:	03df1c63          	bne	t5,t4,e4 <fail>

000000b0 <test_9>:
  b0:	00100093          	li	ra,1
  b4:	00000113          	li	sp,0
  b8:	0220df33          	divu	t5,ra,sp
  bc:	fff00e93          	li	t4,-1
  c0:	00900193          	li	gp,9
  c4:	03df1063          	bne	t5,t4,e4 <fail>

000000c8 <test_10>:
  c8:	00000093          	li	ra,0
  cc:	00000113          	li	sp,0
  d0:	0220df33          	divu	t5,ra,sp
  d4:	fff00e93          	li	t4,-1
  d8:	00a00193          	li	gp,10
  dc:	01df1463          	bne	t5,t4,e4 <fail>
  e0:	00301663          	bne	zero,gp,ec <pass>

000000e4 <fail>:
  e4:	1000d073          	csrwi	sstatus,1

000000e8 <loop_fail>:
  e8:	0000006f          	j	e8 <loop_fail>

000000ec <pass>:
  ec:	1001d073          	csrwi	sstatus,3

000000f0 <loop_pass>:
  f0:	0000006f          	j	f0 <loop_pass>
	...

Disassembly of section .tohost:

00000140 <tohost>:
	...

00000180 <fromhost>:
	...
