
generated/rv32ui-p-sltu:     file format elf32-littleriscv


Disassembly of section .text.init:

00000000 <_start>:
   0:	10005073          	csrwi	sstatus,0

00000004 <test_2>:
   4:	00000093          	li	ra,0
   8:	00000113          	li	sp,0
   c:	0020bf33          	sltu	t5,ra,sp
  10:	00000e93          	li	t4,0
  14:	00200193          	li	gp,2
  18:	4bdf1a63          	bne	t5,t4,4cc <fail>

0000001c <test_3>:
  1c:	00100093          	li	ra,1
  20:	00100113          	li	sp,1
  24:	0020bf33          	sltu	t5,ra,sp
  28:	00000e93          	li	t4,0
  2c:	00300193          	li	gp,3
  30:	49df1e63          	bne	t5,t4,4cc <fail>

00000034 <test_4>:
  34:	00300093          	li	ra,3
  38:	00700113          	li	sp,7
  3c:	0020bf33          	sltu	t5,ra,sp
  40:	00100e93          	li	t4,1
  44:	00400193          	li	gp,4
  48:	49df1263          	bne	t5,t4,4cc <fail>

0000004c <test_5>:
  4c:	00700093          	li	ra,7
  50:	00300113          	li	sp,3
  54:	0020bf33          	sltu	t5,ra,sp
  58:	00000e93          	li	t4,0
  5c:	00500193          	li	gp,5
  60:	47df1663          	bne	t5,t4,4cc <fail>

00000064 <test_6>:
  64:	00000093          	li	ra,0
  68:	ffff8137          	lui	sp,0xffff8
  6c:	0020bf33          	sltu	t5,ra,sp
  70:	00100e93          	li	t4,1
  74:	00600193          	li	gp,6
  78:	45df1a63          	bne	t5,t4,4cc <fail>

0000007c <test_7>:
  7c:	800000b7          	lui	ra,0x80000
  80:	00000113          	li	sp,0
  84:	0020bf33          	sltu	t5,ra,sp
  88:	00000e93          	li	t4,0
  8c:	00700193          	li	gp,7
  90:	43df1e63          	bne	t5,t4,4cc <fail>

00000094 <test_8>:
  94:	800000b7          	lui	ra,0x80000
  98:	ffff8137          	lui	sp,0xffff8
  9c:	0020bf33          	sltu	t5,ra,sp
  a0:	00100e93          	li	t4,1
  a4:	00800193          	li	gp,8
  a8:	43df1263          	bne	t5,t4,4cc <fail>

000000ac <test_9>:
  ac:	00000093          	li	ra,0
  b0:	00008137          	lui	sp,0x8
  b4:	fff10113          	addi	sp,sp,-1 # 7fff <begin_signature+0x6fff>
  b8:	0020bf33          	sltu	t5,ra,sp
  bc:	00100e93          	li	t4,1
  c0:	00900193          	li	gp,9
  c4:	41df1463          	bne	t5,t4,4cc <fail>

000000c8 <test_10>:
  c8:	800000b7          	lui	ra,0x80000
  cc:	fff08093          	addi	ra,ra,-1 # 7fffffff <begin_signature+0x7fffefff>
  d0:	00000113          	li	sp,0
  d4:	0020bf33          	sltu	t5,ra,sp
  d8:	00000e93          	li	t4,0
  dc:	00a00193          	li	gp,10
  e0:	3fdf1663          	bne	t5,t4,4cc <fail>

000000e4 <test_11>:
  e4:	800000b7          	lui	ra,0x80000
  e8:	fff08093          	addi	ra,ra,-1 # 7fffffff <begin_signature+0x7fffefff>
  ec:	00008137          	lui	sp,0x8
  f0:	fff10113          	addi	sp,sp,-1 # 7fff <begin_signature+0x6fff>
  f4:	0020bf33          	sltu	t5,ra,sp
  f8:	00000e93          	li	t4,0
  fc:	00b00193          	li	gp,11
 100:	3ddf1663          	bne	t5,t4,4cc <fail>

00000104 <test_12>:
 104:	800000b7          	lui	ra,0x80000
 108:	00008137          	lui	sp,0x8
 10c:	fff10113          	addi	sp,sp,-1 # 7fff <begin_signature+0x6fff>
 110:	0020bf33          	sltu	t5,ra,sp
 114:	00000e93          	li	t4,0
 118:	00c00193          	li	gp,12
 11c:	3bdf1863          	bne	t5,t4,4cc <fail>

00000120 <test_13>:
 120:	800000b7          	lui	ra,0x80000
 124:	fff08093          	addi	ra,ra,-1 # 7fffffff <begin_signature+0x7fffefff>
 128:	ffff8137          	lui	sp,0xffff8
 12c:	0020bf33          	sltu	t5,ra,sp
 130:	00100e93          	li	t4,1
 134:	00d00193          	li	gp,13
 138:	39df1a63          	bne	t5,t4,4cc <fail>

0000013c <test_14>:
 13c:	00000093          	li	ra,0
 140:	fff00113          	li	sp,-1
 144:	0020bf33          	sltu	t5,ra,sp
 148:	00100e93          	li	t4,1
 14c:	00e00193          	li	gp,14
 150:	37df1e63          	bne	t5,t4,4cc <fail>

00000154 <test_15>:
 154:	fff00093          	li	ra,-1
 158:	00100113          	li	sp,1
 15c:	0020bf33          	sltu	t5,ra,sp
 160:	00000e93          	li	t4,0
 164:	00f00193          	li	gp,15
 168:	37df1263          	bne	t5,t4,4cc <fail>

0000016c <test_16>:
 16c:	fff00093          	li	ra,-1
 170:	fff00113          	li	sp,-1
 174:	0020bf33          	sltu	t5,ra,sp
 178:	00000e93          	li	t4,0
 17c:	01000193          	li	gp,16
 180:	35df1663          	bne	t5,t4,4cc <fail>

00000184 <test_17>:
 184:	00e00093          	li	ra,14
 188:	00d00113          	li	sp,13
 18c:	0020b0b3          	sltu	ra,ra,sp
 190:	00000e93          	li	t4,0
 194:	01100193          	li	gp,17
 198:	33d09a63          	bne	ra,t4,4cc <fail>

0000019c <test_18>:
 19c:	00b00093          	li	ra,11
 1a0:	00d00113          	li	sp,13
 1a4:	0020b133          	sltu	sp,ra,sp
 1a8:	00100e93          	li	t4,1
 1ac:	01200193          	li	gp,18
 1b0:	31d11e63          	bne	sp,t4,4cc <fail>

000001b4 <test_19>:
 1b4:	00d00093          	li	ra,13
 1b8:	0010b0b3          	sltu	ra,ra,ra
 1bc:	00000e93          	li	t4,0
 1c0:	01300193          	li	gp,19
 1c4:	31d09463          	bne	ra,t4,4cc <fail>

000001c8 <test_20>:
 1c8:	00000213          	li	tp,0
 1cc:	00b00093          	li	ra,11
 1d0:	00d00113          	li	sp,13
 1d4:	0020bf33          	sltu	t5,ra,sp
 1d8:	000f0313          	mv	t1,t5
 1dc:	00120213          	addi	tp,tp,1 # 1 <_start+0x1>
 1e0:	00200293          	li	t0,2
 1e4:	fe5214e3          	bne	tp,t0,1cc <test_20+0x4>
 1e8:	00100e93          	li	t4,1
 1ec:	01400193          	li	gp,20
 1f0:	2dd31e63          	bne	t1,t4,4cc <fail>

000001f4 <test_21>:
 1f4:	00000213          	li	tp,0
 1f8:	00e00093          	li	ra,14
 1fc:	00d00113          	li	sp,13
 200:	0020bf33          	sltu	t5,ra,sp
 204:	00000013          	nop
 208:	000f0313          	mv	t1,t5
 20c:	00120213          	addi	tp,tp,1 # 1 <_start+0x1>
 210:	00200293          	li	t0,2
 214:	fe5212e3          	bne	tp,t0,1f8 <test_21+0x4>
 218:	00000e93          	li	t4,0
 21c:	01500193          	li	gp,21
 220:	2bd31663          	bne	t1,t4,4cc <fail>

00000224 <test_22>:
 224:	00000213          	li	tp,0
 228:	00c00093          	li	ra,12
 22c:	00d00113          	li	sp,13
 230:	0020bf33          	sltu	t5,ra,sp
 234:	00000013          	nop
 238:	00000013          	nop
 23c:	000f0313          	mv	t1,t5
 240:	00120213          	addi	tp,tp,1 # 1 <_start+0x1>
 244:	00200293          	li	t0,2
 248:	fe5210e3          	bne	tp,t0,228 <test_22+0x4>
 24c:	00100e93          	li	t4,1
 250:	01600193          	li	gp,22
 254:	27d31c63          	bne	t1,t4,4cc <fail>

00000258 <test_23>:
 258:	00000213          	li	tp,0
 25c:	00e00093          	li	ra,14
 260:	00d00113          	li	sp,13
 264:	0020bf33          	sltu	t5,ra,sp
 268:	00120213          	addi	tp,tp,1 # 1 <_start+0x1>
 26c:	00200293          	li	t0,2
 270:	fe5216e3          	bne	tp,t0,25c <test_23+0x4>
 274:	00000e93          	li	t4,0
 278:	01700193          	li	gp,23
 27c:	25df1863          	bne	t5,t4,4cc <fail>

00000280 <test_24>:
 280:	00000213          	li	tp,0
 284:	00b00093          	li	ra,11
 288:	00d00113          	li	sp,13
 28c:	00000013          	nop
 290:	0020bf33          	sltu	t5,ra,sp
 294:	00120213          	addi	tp,tp,1 # 1 <_start+0x1>
 298:	00200293          	li	t0,2
 29c:	fe5214e3          	bne	tp,t0,284 <test_24+0x4>
 2a0:	00100e93          	li	t4,1
 2a4:	01800193          	li	gp,24
 2a8:	23df1263          	bne	t5,t4,4cc <fail>

000002ac <test_25>:
 2ac:	00000213          	li	tp,0
 2b0:	00f00093          	li	ra,15
 2b4:	00d00113          	li	sp,13
 2b8:	00000013          	nop
 2bc:	00000013          	nop
 2c0:	0020bf33          	sltu	t5,ra,sp
 2c4:	00120213          	addi	tp,tp,1 # 1 <_start+0x1>
 2c8:	00200293          	li	t0,2
 2cc:	fe5212e3          	bne	tp,t0,2b0 <test_25+0x4>
 2d0:	00000e93          	li	t4,0
 2d4:	01900193          	li	gp,25
 2d8:	1fdf1a63          	bne	t5,t4,4cc <fail>

000002dc <test_26>:
 2dc:	00000213          	li	tp,0
 2e0:	00a00093          	li	ra,10
 2e4:	00000013          	nop
 2e8:	00d00113          	li	sp,13
 2ec:	0020bf33          	sltu	t5,ra,sp
 2f0:	00120213          	addi	tp,tp,1 # 1 <_start+0x1>
 2f4:	00200293          	li	t0,2
 2f8:	fe5214e3          	bne	tp,t0,2e0 <test_26+0x4>
 2fc:	00100e93          	li	t4,1
 300:	01a00193          	li	gp,26
 304:	1ddf1463          	bne	t5,t4,4cc <fail>

00000308 <test_27>:
 308:	00000213          	li	tp,0
 30c:	01000093          	li	ra,16
 310:	00000013          	nop
 314:	00d00113          	li	sp,13
 318:	00000013          	nop
 31c:	0020bf33          	sltu	t5,ra,sp
 320:	00120213          	addi	tp,tp,1 # 1 <_start+0x1>
 324:	00200293          	li	t0,2
 328:	fe5212e3          	bne	tp,t0,30c <test_27+0x4>
 32c:	00000e93          	li	t4,0
 330:	01b00193          	li	gp,27
 334:	19df1c63          	bne	t5,t4,4cc <fail>

00000338 <test_28>:
 338:	00000213          	li	tp,0
 33c:	00900093          	li	ra,9
 340:	00000013          	nop
 344:	00000013          	nop
 348:	00d00113          	li	sp,13
 34c:	0020bf33          	sltu	t5,ra,sp
 350:	00120213          	addi	tp,tp,1 # 1 <_start+0x1>
 354:	00200293          	li	t0,2
 358:	fe5212e3          	bne	tp,t0,33c <test_28+0x4>
 35c:	00100e93          	li	t4,1
 360:	01c00193          	li	gp,28
 364:	17df1463          	bne	t5,t4,4cc <fail>

00000368 <test_29>:
 368:	00000213          	li	tp,0
 36c:	00d00113          	li	sp,13
 370:	01100093          	li	ra,17
 374:	0020bf33          	sltu	t5,ra,sp
 378:	00120213          	addi	tp,tp,1 # 1 <_start+0x1>
 37c:	00200293          	li	t0,2
 380:	fe5216e3          	bne	tp,t0,36c <test_29+0x4>
 384:	00000e93          	li	t4,0
 388:	01d00193          	li	gp,29
 38c:	15df1063          	bne	t5,t4,4cc <fail>

00000390 <test_30>:
 390:	00000213          	li	tp,0
 394:	00d00113          	li	sp,13
 398:	00800093          	li	ra,8
 39c:	00000013          	nop
 3a0:	0020bf33          	sltu	t5,ra,sp
 3a4:	00120213          	addi	tp,tp,1 # 1 <_start+0x1>
 3a8:	00200293          	li	t0,2
 3ac:	fe5214e3          	bne	tp,t0,394 <test_30+0x4>
 3b0:	00100e93          	li	t4,1
 3b4:	01e00193          	li	gp,30
 3b8:	11df1a63          	bne	t5,t4,4cc <fail>

000003bc <test_31>:
 3bc:	00000213          	li	tp,0
 3c0:	00d00113          	li	sp,13
 3c4:	01200093          	li	ra,18
 3c8:	00000013          	nop
 3cc:	00000013          	nop
 3d0:	0020bf33          	sltu	t5,ra,sp
 3d4:	00120213          	addi	tp,tp,1 # 1 <_start+0x1>
 3d8:	00200293          	li	t0,2
 3dc:	fe5212e3          	bne	tp,t0,3c0 <test_31+0x4>
 3e0:	00000e93          	li	t4,0
 3e4:	01f00193          	li	gp,31
 3e8:	0fdf1263          	bne	t5,t4,4cc <fail>

000003ec <test_32>:
 3ec:	00000213          	li	tp,0
 3f0:	00d00113          	li	sp,13
 3f4:	00000013          	nop
 3f8:	00700093          	li	ra,7
 3fc:	0020bf33          	sltu	t5,ra,sp
 400:	00120213          	addi	tp,tp,1 # 1 <_start+0x1>
 404:	00200293          	li	t0,2
 408:	fe5214e3          	bne	tp,t0,3f0 <test_32+0x4>
 40c:	00100e93          	li	t4,1
 410:	02000193          	li	gp,32
 414:	0bdf1c63          	bne	t5,t4,4cc <fail>

00000418 <test_33>:
 418:	00000213          	li	tp,0
 41c:	00d00113          	li	sp,13
 420:	00000013          	nop
 424:	01300093          	li	ra,19
 428:	00000013          	nop
 42c:	0020bf33          	sltu	t5,ra,sp
 430:	00120213          	addi	tp,tp,1 # 1 <_start+0x1>
 434:	00200293          	li	t0,2
 438:	fe5212e3          	bne	tp,t0,41c <test_33+0x4>
 43c:	00000e93          	li	t4,0
 440:	02100193          	li	gp,33
 444:	09df1463          	bne	t5,t4,4cc <fail>

00000448 <test_34>:
 448:	00000213          	li	tp,0
 44c:	00d00113          	li	sp,13
 450:	00000013          	nop
 454:	00000013          	nop
 458:	00600093          	li	ra,6
 45c:	0020bf33          	sltu	t5,ra,sp
 460:	00120213          	addi	tp,tp,1 # 1 <_start+0x1>
 464:	00200293          	li	t0,2
 468:	fe5212e3          	bne	tp,t0,44c <test_34+0x4>
 46c:	00100e93          	li	t4,1
 470:	02200193          	li	gp,34
 474:	05df1c63          	bne	t5,t4,4cc <fail>

00000478 <test_35>:
 478:	fff00093          	li	ra,-1
 47c:	00103133          	snez	sp,ra
 480:	00100e93          	li	t4,1
 484:	02300193          	li	gp,35
 488:	05d11263          	bne	sp,t4,4cc <fail>

0000048c <test_36>:
 48c:	fff00093          	li	ra,-1
 490:	0000b133          	sltu	sp,ra,zero
 494:	00000e93          	li	t4,0
 498:	02400193          	li	gp,36
 49c:	03d11863          	bne	sp,t4,4cc <fail>

000004a0 <test_37>:
 4a0:	000030b3          	snez	ra,zero
 4a4:	00000e93          	li	t4,0
 4a8:	02500193          	li	gp,37
 4ac:	03d09063          	bne	ra,t4,4cc <fail>

000004b0 <test_38>:
 4b0:	01000093          	li	ra,16
 4b4:	01e00113          	li	sp,30
 4b8:	0020b033          	sltu	zero,ra,sp
 4bc:	00000e93          	li	t4,0
 4c0:	02600193          	li	gp,38
 4c4:	01d01463          	bne	zero,t4,4cc <fail>
 4c8:	00301663          	bne	zero,gp,4d4 <pass>

000004cc <fail>:
 4cc:	1000d073          	csrwi	sstatus,1

000004d0 <loop_fail>:
 4d0:	0000006f          	j	4d0 <loop_fail>

000004d4 <pass>:
 4d4:	1001d073          	csrwi	sstatus,3

000004d8 <loop_pass>:
 4d8:	0000006f          	j	4d8 <loop_pass>
	...

Disassembly of section .tohost:

00000540 <tohost>:
	...

00000580 <fromhost>:
	...
