
generated/rv32um-p-remu:     file format elf32-littleriscv


Disassembly of section .text.init:

00000000 <_start>:
   0:	10005073          	csrwi	sstatus,0

00000004 <test_2>:
   4:	01400093          	li	ra,20
   8:	00600113          	li	sp,6
   c:	0220ff33          	remu	t5,ra,sp
  10:	00200e93          	li	t4,2
  14:	00200193          	li	gp,2
  18:	0ddf1463          	bne	t5,t4,e0 <fail>

0000001c <test_3>:
  1c:	fec00093          	li	ra,-20
  20:	00600113          	li	sp,6
  24:	0220ff33          	remu	t5,ra,sp
  28:	00200e93          	li	t4,2
  2c:	00300193          	li	gp,3
  30:	0bdf1863          	bne	t5,t4,e0 <fail>

00000034 <test_4>:
  34:	01400093          	li	ra,20
  38:	ffa00113          	li	sp,-6
  3c:	0220ff33          	remu	t5,ra,sp
  40:	01400e93          	li	t4,20
  44:	00400193          	li	gp,4
  48:	09df1c63          	bne	t5,t4,e0 <fail>

0000004c <test_5>:
  4c:	fec00093          	li	ra,-20
  50:	ffa00113          	li	sp,-6
  54:	0220ff33          	remu	t5,ra,sp
  58:	fec00e93          	li	t4,-20
  5c:	00500193          	li	gp,5
  60:	09df1063          	bne	t5,t4,e0 <fail>

00000064 <test_6>:
  64:	00000093          	li	ra,0
  68:	00100113          	li	sp,1
  6c:	0220ff33          	remu	t5,ra,sp
  70:	00000e93          	li	t4,0
  74:	00600193          	li	gp,6
  78:	07df1463          	bne	t5,t4,e0 <fail>

0000007c <test_7>:
  7c:	00000093          	li	ra,0
  80:	fff00113          	li	sp,-1
  84:	0220ff33          	remu	t5,ra,sp
  88:	00000e93          	li	t4,0
  8c:	00700193          	li	gp,7
  90:	05df1863          	bne	t5,t4,e0 <fail>

00000094 <test_8>:
  94:	00000093          	li	ra,0
  98:	00000113          	li	sp,0
  9c:	0220ff33          	remu	t5,ra,sp
  a0:	00000e93          	li	t4,0
  a4:	00800193          	li	gp,8
  a8:	03df1c63          	bne	t5,t4,e0 <fail>

000000ac <test_9>:
  ac:	00100093          	li	ra,1
  b0:	00000113          	li	sp,0
  b4:	0220ff33          	remu	t5,ra,sp
  b8:	00100e93          	li	t4,1
  bc:	00900193          	li	gp,9
  c0:	03df1063          	bne	t5,t4,e0 <fail>

000000c4 <test_10>:
  c4:	00000093          	li	ra,0
  c8:	00000113          	li	sp,0
  cc:	0220ff33          	remu	t5,ra,sp
  d0:	00000e93          	li	t4,0
  d4:	00a00193          	li	gp,10
  d8:	01df1463          	bne	t5,t4,e0 <fail>
  dc:	00301663          	bne	zero,gp,e8 <pass>

000000e0 <fail>:
  e0:	1000d073          	csrwi	sstatus,1

000000e4 <loop_fail>:
  e4:	0000006f          	j	e4 <loop_fail>

000000e8 <pass>:
  e8:	1001d073          	csrwi	sstatus,3

000000ec <loop_pass>:
  ec:	0000006f          	j	ec <loop_pass>
	...

Disassembly of section .tohost:

00000140 <tohost>:
	...

00000180 <fromhost>:
	...

Disassembly of section .riscv.attributes:

00000000 <.riscv.attributes>:
   0:	2241                	jal	180 <fromhost>
   2:	0000                	unimp
   4:	7200                	flw	fs0,32(a2)
   6:	7369                	lui	t1,0xffffa
   8:	01007663          	bgeu	zero,a6,14 <test_2+0x10>
   c:	0018                	0x18
   e:	0000                	unimp
  10:	7205                	lui	tp,0xfffe1
  12:	3376                	fld	ft6,376(sp)
  14:	6932                	flw	fs2,12(sp)
  16:	7032                	flw	ft0,44(sp)
  18:	5f30                	lw	a2,120(a4)
  1a:	326d                	jal	fffff9c4 <begin_signature+0xffffe9c4>
  1c:	3070                	fld	fa2,224(s0)
  1e:	0800                	addi	s0,sp,16
  20:	0a01                	addi	s4,s4,0
  22:	0b              	Address 0x0000000000000022 is out of bounds.

