
generated/rv32ui-p-lb:     file format elf32-littleriscv


Disassembly of section .text.init:

00000000 <_start>:
   0:	10005073          	csrwi	sstatus,0

00000004 <test_2>:
   4:	00001097          	auipc	ra,0x1
   8:	ffc08093          	addi	ra,ra,-4 # 1000 <begin_signature>
   c:	00008f03          	lb	t5,0(ra)
  10:	fff00e93          	li	t4,-1
  14:	00200193          	li	gp,2
  18:	23df1c63          	bne	t5,t4,250 <fail>

0000001c <test_3>:
  1c:	00001097          	auipc	ra,0x1
  20:	fe408093          	addi	ra,ra,-28 # 1000 <begin_signature>
  24:	00108f03          	lb	t5,1(ra)
  28:	00000e93          	li	t4,0
  2c:	00300193          	li	gp,3
  30:	23df1063          	bne	t5,t4,250 <fail>

00000034 <test_4>:
  34:	00001097          	auipc	ra,0x1
  38:	fcc08093          	addi	ra,ra,-52 # 1000 <begin_signature>
  3c:	00208f03          	lb	t5,2(ra)
  40:	ff000e93          	li	t4,-16
  44:	00400193          	li	gp,4
  48:	21df1463          	bne	t5,t4,250 <fail>

0000004c <test_5>:
  4c:	00001097          	auipc	ra,0x1
  50:	fb408093          	addi	ra,ra,-76 # 1000 <begin_signature>
  54:	00308f03          	lb	t5,3(ra)
  58:	00f00e93          	li	t4,15
  5c:	00500193          	li	gp,5
  60:	1fdf1863          	bne	t5,t4,250 <fail>

00000064 <test_6>:
  64:	00001097          	auipc	ra,0x1
  68:	f9f08093          	addi	ra,ra,-97 # 1003 <tdat4>
  6c:	ffd08f03          	lb	t5,-3(ra)
  70:	fff00e93          	li	t4,-1
  74:	00600193          	li	gp,6
  78:	1ddf1c63          	bne	t5,t4,250 <fail>

0000007c <test_7>:
  7c:	00001097          	auipc	ra,0x1
  80:	f8708093          	addi	ra,ra,-121 # 1003 <tdat4>
  84:	ffe08f03          	lb	t5,-2(ra)
  88:	00000e93          	li	t4,0
  8c:	00700193          	li	gp,7
  90:	1ddf1063          	bne	t5,t4,250 <fail>

00000094 <test_8>:
  94:	00001097          	auipc	ra,0x1
  98:	f6f08093          	addi	ra,ra,-145 # 1003 <tdat4>
  9c:	fff08f03          	lb	t5,-1(ra)
  a0:	ff000e93          	li	t4,-16
  a4:	00800193          	li	gp,8
  a8:	1bdf1463          	bne	t5,t4,250 <fail>

000000ac <test_9>:
  ac:	00001097          	auipc	ra,0x1
  b0:	f5708093          	addi	ra,ra,-169 # 1003 <tdat4>
  b4:	00008f03          	lb	t5,0(ra)
  b8:	00f00e93          	li	t4,15
  bc:	00900193          	li	gp,9
  c0:	19df1863          	bne	t5,t4,250 <fail>

000000c4 <test_10>:
  c4:	00001097          	auipc	ra,0x1
  c8:	f3c08093          	addi	ra,ra,-196 # 1000 <begin_signature>
  cc:	fe008093          	addi	ra,ra,-32
  d0:	02008283          	lb	t0,32(ra)
  d4:	fff00e93          	li	t4,-1
  d8:	00a00193          	li	gp,10
  dc:	17d29a63          	bne	t0,t4,250 <fail>

000000e0 <test_11>:
  e0:	00001097          	auipc	ra,0x1
  e4:	f2008093          	addi	ra,ra,-224 # 1000 <begin_signature>
  e8:	ffa08093          	addi	ra,ra,-6
  ec:	00708283          	lb	t0,7(ra)
  f0:	00000e93          	li	t4,0
  f4:	00b00193          	li	gp,11
  f8:	15d29c63          	bne	t0,t4,250 <fail>

000000fc <test_12>:
  fc:	00c00193          	li	gp,12
 100:	00000213          	li	tp,0
 104:	00001097          	auipc	ra,0x1
 108:	efd08093          	addi	ra,ra,-259 # 1001 <tdat2>
 10c:	00108f03          	lb	t5,1(ra)
 110:	000f0313          	mv	t1,t5
 114:	ff000e93          	li	t4,-16
 118:	13d31c63          	bne	t1,t4,250 <fail>
 11c:	00120213          	addi	tp,tp,1 # 1 <_start+0x1>
 120:	00200293          	li	t0,2
 124:	fe5210e3          	bne	tp,t0,104 <test_12+0x8>

00000128 <test_13>:
 128:	00d00193          	li	gp,13
 12c:	00000213          	li	tp,0
 130:	00001097          	auipc	ra,0x1
 134:	ed208093          	addi	ra,ra,-302 # 1002 <tdat3>
 138:	00108f03          	lb	t5,1(ra)
 13c:	00000013          	nop
 140:	000f0313          	mv	t1,t5
 144:	00f00e93          	li	t4,15
 148:	11d31463          	bne	t1,t4,250 <fail>
 14c:	00120213          	addi	tp,tp,1 # 1 <_start+0x1>
 150:	00200293          	li	t0,2
 154:	fc521ee3          	bne	tp,t0,130 <test_13+0x8>

00000158 <test_14>:
 158:	00e00193          	li	gp,14
 15c:	00000213          	li	tp,0
 160:	00001097          	auipc	ra,0x1
 164:	ea008093          	addi	ra,ra,-352 # 1000 <begin_signature>
 168:	00108f03          	lb	t5,1(ra)
 16c:	00000013          	nop
 170:	00000013          	nop
 174:	000f0313          	mv	t1,t5
 178:	00000e93          	li	t4,0
 17c:	0dd31a63          	bne	t1,t4,250 <fail>
 180:	00120213          	addi	tp,tp,1 # 1 <_start+0x1>
 184:	00200293          	li	t0,2
 188:	fc521ce3          	bne	tp,t0,160 <test_14+0x8>

0000018c <test_15>:
 18c:	00f00193          	li	gp,15
 190:	00000213          	li	tp,0
 194:	00001097          	auipc	ra,0x1
 198:	e6d08093          	addi	ra,ra,-403 # 1001 <tdat2>
 19c:	00108f03          	lb	t5,1(ra)
 1a0:	ff000e93          	li	t4,-16
 1a4:	0bdf1663          	bne	t5,t4,250 <fail>
 1a8:	00120213          	addi	tp,tp,1 # 1 <_start+0x1>
 1ac:	00200293          	li	t0,2
 1b0:	fe5212e3          	bne	tp,t0,194 <test_15+0x8>

000001b4 <test_16>:
 1b4:	01000193          	li	gp,16
 1b8:	00000213          	li	tp,0
 1bc:	00001097          	auipc	ra,0x1
 1c0:	e4608093          	addi	ra,ra,-442 # 1002 <tdat3>
 1c4:	00000013          	nop
 1c8:	00108f03          	lb	t5,1(ra)
 1cc:	00f00e93          	li	t4,15
 1d0:	09df1063          	bne	t5,t4,250 <fail>
 1d4:	00120213          	addi	tp,tp,1 # 1 <_start+0x1>
 1d8:	00200293          	li	t0,2
 1dc:	fe5210e3          	bne	tp,t0,1bc <test_16+0x8>

000001e0 <test_17>:
 1e0:	01100193          	li	gp,17
 1e4:	00000213          	li	tp,0
 1e8:	00001097          	auipc	ra,0x1
 1ec:	e1808093          	addi	ra,ra,-488 # 1000 <begin_signature>
 1f0:	00000013          	nop
 1f4:	00000013          	nop
 1f8:	00108f03          	lb	t5,1(ra)
 1fc:	00000e93          	li	t4,0
 200:	05df1863          	bne	t5,t4,250 <fail>
 204:	00120213          	addi	tp,tp,1 # 1 <_start+0x1>
 208:	00200293          	li	t0,2
 20c:	fc521ee3          	bne	tp,t0,1e8 <test_17+0x8>

00000210 <test_18>:
 210:	00001297          	auipc	t0,0x1
 214:	df028293          	addi	t0,t0,-528 # 1000 <begin_signature>
 218:	00028103          	lb	sp,0(t0)
 21c:	00200113          	li	sp,2
 220:	00200e93          	li	t4,2
 224:	01200193          	li	gp,18
 228:	03d11463          	bne	sp,t4,250 <fail>

0000022c <test_19>:
 22c:	00001297          	auipc	t0,0x1
 230:	dd428293          	addi	t0,t0,-556 # 1000 <begin_signature>
 234:	00028103          	lb	sp,0(t0)
 238:	00000013          	nop
 23c:	00200113          	li	sp,2
 240:	00200e93          	li	t4,2
 244:	01300193          	li	gp,19
 248:	01d11463          	bne	sp,t4,250 <fail>
 24c:	00301663          	bne	zero,gp,258 <pass>

00000250 <fail>:
 250:	1000d073          	csrwi	sstatus,1

00000254 <loop_fail>:
 254:	0000006f          	j	254 <loop_fail>

00000258 <pass>:
 258:	1001d073          	csrwi	sstatus,3

0000025c <loop_pass>:
 25c:	0000006f          	j	25c <loop_pass>
	...

Disassembly of section .tohost:

00001040 <tohost>:
	...

00001080 <fromhost>:
	...
