
generated/rv32ui-p-lhu:     file format elf32-littleriscv


Disassembly of section .text.init:

00000000 <_start>:
   0:	10005073          	csrwi	sstatus,0

00000004 <test_2>:
   4:	00001097          	auipc	ra,0x1
   8:	ffc08093          	addi	ra,ra,-4 # 1000 <begin_signature>
   c:	0000df03          	lhu	t5,0(ra)
  10:	0ff00e93          	li	t4,255
  14:	00200193          	li	gp,2
  18:	27df1663          	bne	t5,t4,284 <fail>

0000001c <test_3>:
  1c:	00001097          	auipc	ra,0x1
  20:	fe408093          	addi	ra,ra,-28 # 1000 <begin_signature>
  24:	0020df03          	lhu	t5,2(ra)
  28:	00010eb7          	lui	t4,0x10
  2c:	f00e8e93          	addi	t4,t4,-256 # ff00 <_end+0xee78>
  30:	00300193          	li	gp,3
  34:	25df1863          	bne	t5,t4,284 <fail>

00000038 <test_4>:
  38:	00001097          	auipc	ra,0x1
  3c:	fc808093          	addi	ra,ra,-56 # 1000 <begin_signature>
  40:	0040df03          	lhu	t5,4(ra)
  44:	00001eb7          	lui	t4,0x1
  48:	ff0e8e93          	addi	t4,t4,-16 # ff0 <loop_pass+0xd60>
  4c:	00400193          	li	gp,4
  50:	23df1a63          	bne	t5,t4,284 <fail>

00000054 <test_5>:
  54:	00001097          	auipc	ra,0x1
  58:	fac08093          	addi	ra,ra,-84 # 1000 <begin_signature>
  5c:	0060df03          	lhu	t5,6(ra)
  60:	0000feb7          	lui	t4,0xf
  64:	00fe8e93          	addi	t4,t4,15 # f00f <_end+0xdf87>
  68:	00500193          	li	gp,5
  6c:	21df1c63          	bne	t5,t4,284 <fail>

00000070 <test_6>:
  70:	00001097          	auipc	ra,0x1
  74:	f9608093          	addi	ra,ra,-106 # 1006 <tdat4>
  78:	ffa0df03          	lhu	t5,-6(ra)
  7c:	0ff00e93          	li	t4,255
  80:	00600193          	li	gp,6
  84:	21df1063          	bne	t5,t4,284 <fail>

00000088 <test_7>:
  88:	00001097          	auipc	ra,0x1
  8c:	f7e08093          	addi	ra,ra,-130 # 1006 <tdat4>
  90:	ffc0df03          	lhu	t5,-4(ra)
  94:	00010eb7          	lui	t4,0x10
  98:	f00e8e93          	addi	t4,t4,-256 # ff00 <_end+0xee78>
  9c:	00700193          	li	gp,7
  a0:	1fdf1263          	bne	t5,t4,284 <fail>

000000a4 <test_8>:
  a4:	00001097          	auipc	ra,0x1
  a8:	f6208093          	addi	ra,ra,-158 # 1006 <tdat4>
  ac:	ffe0df03          	lhu	t5,-2(ra)
  b0:	00001eb7          	lui	t4,0x1
  b4:	ff0e8e93          	addi	t4,t4,-16 # ff0 <loop_pass+0xd60>
  b8:	00800193          	li	gp,8
  bc:	1ddf1463          	bne	t5,t4,284 <fail>

000000c0 <test_9>:
  c0:	00001097          	auipc	ra,0x1
  c4:	f4608093          	addi	ra,ra,-186 # 1006 <tdat4>
  c8:	0000df03          	lhu	t5,0(ra)
  cc:	0000feb7          	lui	t4,0xf
  d0:	00fe8e93          	addi	t4,t4,15 # f00f <_end+0xdf87>
  d4:	00900193          	li	gp,9
  d8:	1bdf1663          	bne	t5,t4,284 <fail>

000000dc <test_10>:
  dc:	00001097          	auipc	ra,0x1
  e0:	f2408093          	addi	ra,ra,-220 # 1000 <begin_signature>
  e4:	fe008093          	addi	ra,ra,-32
  e8:	0200d283          	lhu	t0,32(ra)
  ec:	0ff00e93          	li	t4,255
  f0:	00a00193          	li	gp,10
  f4:	19d29863          	bne	t0,t4,284 <fail>

000000f8 <test_11>:
  f8:	00001097          	auipc	ra,0x1
  fc:	f0808093          	addi	ra,ra,-248 # 1000 <begin_signature>
 100:	ffb08093          	addi	ra,ra,-5
 104:	0070d283          	lhu	t0,7(ra)
 108:	00010eb7          	lui	t4,0x10
 10c:	f00e8e93          	addi	t4,t4,-256 # ff00 <_end+0xee78>
 110:	00b00193          	li	gp,11
 114:	17d29863          	bne	t0,t4,284 <fail>

00000118 <test_12>:
 118:	00c00193          	li	gp,12
 11c:	00000213          	li	tp,0
 120:	00001097          	auipc	ra,0x1
 124:	ee208093          	addi	ra,ra,-286 # 1002 <tdat2>
 128:	0020df03          	lhu	t5,2(ra)
 12c:	000f0313          	mv	t1,t5
 130:	00001eb7          	lui	t4,0x1
 134:	ff0e8e93          	addi	t4,t4,-16 # ff0 <loop_pass+0xd60>
 138:	15d31663          	bne	t1,t4,284 <fail>
 13c:	00120213          	addi	tp,tp,1 # 1 <_start+0x1>
 140:	00200293          	li	t0,2
 144:	fc521ee3          	bne	tp,t0,120 <test_12+0x8>

00000148 <test_13>:
 148:	00d00193          	li	gp,13
 14c:	00000213          	li	tp,0
 150:	00001097          	auipc	ra,0x1
 154:	eb408093          	addi	ra,ra,-332 # 1004 <tdat3>
 158:	0020df03          	lhu	t5,2(ra)
 15c:	00000013          	nop
 160:	000f0313          	mv	t1,t5
 164:	0000feb7          	lui	t4,0xf
 168:	00fe8e93          	addi	t4,t4,15 # f00f <_end+0xdf87>
 16c:	11d31c63          	bne	t1,t4,284 <fail>
 170:	00120213          	addi	tp,tp,1 # 1 <_start+0x1>
 174:	00200293          	li	t0,2
 178:	fc521ce3          	bne	tp,t0,150 <test_13+0x8>

0000017c <test_14>:
 17c:	00e00193          	li	gp,14
 180:	00000213          	li	tp,0
 184:	00001097          	auipc	ra,0x1
 188:	e7c08093          	addi	ra,ra,-388 # 1000 <begin_signature>
 18c:	0020df03          	lhu	t5,2(ra)
 190:	00000013          	nop
 194:	00000013          	nop
 198:	000f0313          	mv	t1,t5
 19c:	00010eb7          	lui	t4,0x10
 1a0:	f00e8e93          	addi	t4,t4,-256 # ff00 <_end+0xee78>
 1a4:	0fd31063          	bne	t1,t4,284 <fail>
 1a8:	00120213          	addi	tp,tp,1 # 1 <_start+0x1>
 1ac:	00200293          	li	t0,2
 1b0:	fc521ae3          	bne	tp,t0,184 <test_14+0x8>

000001b4 <test_15>:
 1b4:	00f00193          	li	gp,15
 1b8:	00000213          	li	tp,0
 1bc:	00001097          	auipc	ra,0x1
 1c0:	e4608093          	addi	ra,ra,-442 # 1002 <tdat2>
 1c4:	0020df03          	lhu	t5,2(ra)
 1c8:	00001eb7          	lui	t4,0x1
 1cc:	ff0e8e93          	addi	t4,t4,-16 # ff0 <loop_pass+0xd60>
 1d0:	0bdf1a63          	bne	t5,t4,284 <fail>
 1d4:	00120213          	addi	tp,tp,1 # 1 <_start+0x1>
 1d8:	00200293          	li	t0,2
 1dc:	fe5210e3          	bne	tp,t0,1bc <test_15+0x8>

000001e0 <test_16>:
 1e0:	01000193          	li	gp,16
 1e4:	00000213          	li	tp,0
 1e8:	00001097          	auipc	ra,0x1
 1ec:	e1c08093          	addi	ra,ra,-484 # 1004 <tdat3>
 1f0:	00000013          	nop
 1f4:	0020df03          	lhu	t5,2(ra)
 1f8:	0000feb7          	lui	t4,0xf
 1fc:	00fe8e93          	addi	t4,t4,15 # f00f <_end+0xdf87>
 200:	09df1263          	bne	t5,t4,284 <fail>
 204:	00120213          	addi	tp,tp,1 # 1 <_start+0x1>
 208:	00200293          	li	t0,2
 20c:	fc521ee3          	bne	tp,t0,1e8 <test_16+0x8>

00000210 <test_17>:
 210:	01100193          	li	gp,17
 214:	00000213          	li	tp,0
 218:	00001097          	auipc	ra,0x1
 21c:	de808093          	addi	ra,ra,-536 # 1000 <begin_signature>
 220:	00000013          	nop
 224:	00000013          	nop
 228:	0020df03          	lhu	t5,2(ra)
 22c:	00010eb7          	lui	t4,0x10
 230:	f00e8e93          	addi	t4,t4,-256 # ff00 <_end+0xee78>
 234:	05df1863          	bne	t5,t4,284 <fail>
 238:	00120213          	addi	tp,tp,1 # 1 <_start+0x1>
 23c:	00200293          	li	t0,2
 240:	fc521ce3          	bne	tp,t0,218 <test_17+0x8>

00000244 <test_18>:
 244:	00001297          	auipc	t0,0x1
 248:	dbc28293          	addi	t0,t0,-580 # 1000 <begin_signature>
 24c:	0002d103          	lhu	sp,0(t0)
 250:	00200113          	li	sp,2
 254:	00200e93          	li	t4,2
 258:	01200193          	li	gp,18
 25c:	03d11463          	bne	sp,t4,284 <fail>

00000260 <test_19>:
 260:	00001297          	auipc	t0,0x1
 264:	da028293          	addi	t0,t0,-608 # 1000 <begin_signature>
 268:	0002d103          	lhu	sp,0(t0)
 26c:	00000013          	nop
 270:	00200113          	li	sp,2
 274:	00200e93          	li	t4,2
 278:	01300193          	li	gp,19
 27c:	01d11463          	bne	sp,t4,284 <fail>
 280:	00301663          	bne	zero,gp,28c <pass>

00000284 <fail>:
 284:	1000d073          	csrwi	sstatus,1

00000288 <loop_fail>:
 288:	0000006f          	j	288 <loop_fail>

0000028c <pass>:
 28c:	1001d073          	csrwi	sstatus,3

00000290 <loop_pass>:
 290:	0000006f          	j	290 <loop_pass>
	...

Disassembly of section .tohost:

00001040 <tohost>:
	...

00001080 <fromhost>:
	...
