
generated/rv32um-p-mul:     file format elf32-littleriscv


Disassembly of section .text.init:

00000000 <_start>:
   0:	10005073          	csrwi	sstatus,0

00000004 <test_32>:
   4:	000080b7          	lui	ra,0x8
   8:	e0008093          	addi	ra,ra,-512 # 7e00 <begin_signature+0x6e00>
   c:	b6db7137          	lui	sp,0xb6db7
  10:	db710113          	addi	sp,sp,-585 # b6db6db7 <begin_signature+0xb6db5db7>
  14:	02208f33          	mul	t5,ra,sp
  18:	00001eb7          	lui	t4,0x1
  1c:	200e8e93          	addi	t4,t4,512 # 1200 <begin_signature+0x200>
  20:	02000193          	li	gp,32
  24:	4bdf1463          	bne	t5,t4,4cc <fail>

00000028 <test_33>:
  28:	000080b7          	lui	ra,0x8
  2c:	fc008093          	addi	ra,ra,-64 # 7fc0 <begin_signature+0x6fc0>
  30:	b6db7137          	lui	sp,0xb6db7
  34:	db710113          	addi	sp,sp,-585 # b6db6db7 <begin_signature+0xb6db5db7>
  38:	02208f33          	mul	t5,ra,sp
  3c:	00001eb7          	lui	t4,0x1
  40:	240e8e93          	addi	t4,t4,576 # 1240 <begin_signature+0x240>
  44:	02100193          	li	gp,33
  48:	49df1263          	bne	t5,t4,4cc <fail>

0000004c <test_2>:
  4c:	00000093          	li	ra,0
  50:	00000113          	li	sp,0
  54:	02208f33          	mul	t5,ra,sp
  58:	00000e93          	li	t4,0
  5c:	00200193          	li	gp,2
  60:	47df1663          	bne	t5,t4,4cc <fail>

00000064 <test_3>:
  64:	00100093          	li	ra,1
  68:	00100113          	li	sp,1
  6c:	02208f33          	mul	t5,ra,sp
  70:	00100e93          	li	t4,1
  74:	00300193          	li	gp,3
  78:	45df1a63          	bne	t5,t4,4cc <fail>

0000007c <test_4>:
  7c:	00300093          	li	ra,3
  80:	00700113          	li	sp,7
  84:	02208f33          	mul	t5,ra,sp
  88:	01500e93          	li	t4,21
  8c:	00400193          	li	gp,4
  90:	43df1e63          	bne	t5,t4,4cc <fail>

00000094 <test_5>:
  94:	00000093          	li	ra,0
  98:	ffff8137          	lui	sp,0xffff8
  9c:	02208f33          	mul	t5,ra,sp
  a0:	00000e93          	li	t4,0
  a4:	00500193          	li	gp,5
  a8:	43df1263          	bne	t5,t4,4cc <fail>

000000ac <test_6>:
  ac:	800000b7          	lui	ra,0x80000
  b0:	00000113          	li	sp,0
  b4:	02208f33          	mul	t5,ra,sp
  b8:	00000e93          	li	t4,0
  bc:	00600193          	li	gp,6
  c0:	41df1663          	bne	t5,t4,4cc <fail>

000000c4 <test_7>:
  c4:	800000b7          	lui	ra,0x80000
  c8:	ffff8137          	lui	sp,0xffff8
  cc:	02208f33          	mul	t5,ra,sp
  d0:	00000e93          	li	t4,0
  d4:	00700193          	li	gp,7
  d8:	3fdf1a63          	bne	t5,t4,4cc <fail>

000000dc <test_30>:
  dc:	aaaab0b7          	lui	ra,0xaaaab
  e0:	aab08093          	addi	ra,ra,-1365 # aaaaaaab <begin_signature+0xaaaa9aab>
  e4:	00030137          	lui	sp,0x30
  e8:	e7d10113          	addi	sp,sp,-387 # 2fe7d <begin_signature+0x2ee7d>
  ec:	02208f33          	mul	t5,ra,sp
  f0:	00010eb7          	lui	t4,0x10
  f4:	f7fe8e93          	addi	t4,t4,-129 # ff7f <begin_signature+0xef7f>
  f8:	01e00193          	li	gp,30
  fc:	3ddf1863          	bne	t5,t4,4cc <fail>

00000100 <test_31>:
 100:	000300b7          	lui	ra,0x30
 104:	e7d08093          	addi	ra,ra,-387 # 2fe7d <begin_signature+0x2ee7d>
 108:	aaaab137          	lui	sp,0xaaaab
 10c:	aab10113          	addi	sp,sp,-1365 # aaaaaaab <begin_signature+0xaaaa9aab>
 110:	02208f33          	mul	t5,ra,sp
 114:	00010eb7          	lui	t4,0x10
 118:	f7fe8e93          	addi	t4,t4,-129 # ff7f <begin_signature+0xef7f>
 11c:	01f00193          	li	gp,31
 120:	3bdf1663          	bne	t5,t4,4cc <fail>

00000124 <test_34>:
 124:	ff0000b7          	lui	ra,0xff000
 128:	ff000137          	lui	sp,0xff000
 12c:	02208f33          	mul	t5,ra,sp
 130:	00000e93          	li	t4,0
 134:	02200193          	li	gp,34
 138:	39df1a63          	bne	t5,t4,4cc <fail>

0000013c <test_35>:
 13c:	fff00093          	li	ra,-1
 140:	fff00113          	li	sp,-1
 144:	02208f33          	mul	t5,ra,sp
 148:	00100e93          	li	t4,1
 14c:	02300193          	li	gp,35
 150:	37df1e63          	bne	t5,t4,4cc <fail>

00000154 <test_36>:
 154:	fff00093          	li	ra,-1
 158:	00100113          	li	sp,1
 15c:	02208f33          	mul	t5,ra,sp
 160:	fff00e93          	li	t4,-1
 164:	02400193          	li	gp,36
 168:	37df1263          	bne	t5,t4,4cc <fail>

0000016c <test_37>:
 16c:	00100093          	li	ra,1
 170:	fff00113          	li	sp,-1
 174:	02208f33          	mul	t5,ra,sp
 178:	fff00e93          	li	t4,-1
 17c:	02500193          	li	gp,37
 180:	35df1663          	bne	t5,t4,4cc <fail>

00000184 <test_8>:
 184:	00d00093          	li	ra,13
 188:	00b00113          	li	sp,11
 18c:	022080b3          	mul	ra,ra,sp
 190:	08f00e93          	li	t4,143
 194:	00800193          	li	gp,8
 198:	33d09a63          	bne	ra,t4,4cc <fail>

0000019c <test_9>:
 19c:	00e00093          	li	ra,14
 1a0:	00b00113          	li	sp,11
 1a4:	02208133          	mul	sp,ra,sp
 1a8:	09a00e93          	li	t4,154
 1ac:	00900193          	li	gp,9
 1b0:	31d11e63          	bne	sp,t4,4cc <fail>

000001b4 <test_10>:
 1b4:	00d00093          	li	ra,13
 1b8:	021080b3          	mul	ra,ra,ra
 1bc:	0a900e93          	li	t4,169
 1c0:	00a00193          	li	gp,10
 1c4:	31d09463          	bne	ra,t4,4cc <fail>

000001c8 <test_11>:
 1c8:	00000213          	li	tp,0
 1cc:	00d00093          	li	ra,13
 1d0:	00b00113          	li	sp,11
 1d4:	02208f33          	mul	t5,ra,sp
 1d8:	000f0313          	mv	t1,t5
 1dc:	00120213          	addi	tp,tp,1 # 1 <_start+0x1>
 1e0:	00200293          	li	t0,2
 1e4:	fe5214e3          	bne	tp,t0,1cc <test_11+0x4>
 1e8:	08f00e93          	li	t4,143
 1ec:	00b00193          	li	gp,11
 1f0:	2dd31e63          	bne	t1,t4,4cc <fail>

000001f4 <test_12>:
 1f4:	00000213          	li	tp,0
 1f8:	00e00093          	li	ra,14
 1fc:	00b00113          	li	sp,11
 200:	02208f33          	mul	t5,ra,sp
 204:	00000013          	nop
 208:	000f0313          	mv	t1,t5
 20c:	00120213          	addi	tp,tp,1 # 1 <_start+0x1>
 210:	00200293          	li	t0,2
 214:	fe5212e3          	bne	tp,t0,1f8 <test_12+0x4>
 218:	09a00e93          	li	t4,154
 21c:	00c00193          	li	gp,12
 220:	2bd31663          	bne	t1,t4,4cc <fail>

00000224 <test_13>:
 224:	00000213          	li	tp,0
 228:	00f00093          	li	ra,15
 22c:	00b00113          	li	sp,11
 230:	02208f33          	mul	t5,ra,sp
 234:	00000013          	nop
 238:	00000013          	nop
 23c:	000f0313          	mv	t1,t5
 240:	00120213          	addi	tp,tp,1 # 1 <_start+0x1>
 244:	00200293          	li	t0,2
 248:	fe5210e3          	bne	tp,t0,228 <test_13+0x4>
 24c:	0a500e93          	li	t4,165
 250:	00d00193          	li	gp,13
 254:	27d31c63          	bne	t1,t4,4cc <fail>

00000258 <test_14>:
 258:	00000213          	li	tp,0
 25c:	00d00093          	li	ra,13
 260:	00b00113          	li	sp,11
 264:	02208f33          	mul	t5,ra,sp
 268:	00120213          	addi	tp,tp,1 # 1 <_start+0x1>
 26c:	00200293          	li	t0,2
 270:	fe5216e3          	bne	tp,t0,25c <test_14+0x4>
 274:	08f00e93          	li	t4,143
 278:	00e00193          	li	gp,14
 27c:	25df1863          	bne	t5,t4,4cc <fail>

00000280 <test_15>:
 280:	00000213          	li	tp,0
 284:	00e00093          	li	ra,14
 288:	00b00113          	li	sp,11
 28c:	00000013          	nop
 290:	02208f33          	mul	t5,ra,sp
 294:	00120213          	addi	tp,tp,1 # 1 <_start+0x1>
 298:	00200293          	li	t0,2
 29c:	fe5214e3          	bne	tp,t0,284 <test_15+0x4>
 2a0:	09a00e93          	li	t4,154
 2a4:	00f00193          	li	gp,15
 2a8:	23df1263          	bne	t5,t4,4cc <fail>

000002ac <test_16>:
 2ac:	00000213          	li	tp,0
 2b0:	00f00093          	li	ra,15
 2b4:	00b00113          	li	sp,11
 2b8:	00000013          	nop
 2bc:	00000013          	nop
 2c0:	02208f33          	mul	t5,ra,sp
 2c4:	00120213          	addi	tp,tp,1 # 1 <_start+0x1>
 2c8:	00200293          	li	t0,2
 2cc:	fe5212e3          	bne	tp,t0,2b0 <test_16+0x4>
 2d0:	0a500e93          	li	t4,165
 2d4:	01000193          	li	gp,16
 2d8:	1fdf1a63          	bne	t5,t4,4cc <fail>

000002dc <test_17>:
 2dc:	00000213          	li	tp,0
 2e0:	00d00093          	li	ra,13
 2e4:	00000013          	nop
 2e8:	00b00113          	li	sp,11
 2ec:	02208f33          	mul	t5,ra,sp
 2f0:	00120213          	addi	tp,tp,1 # 1 <_start+0x1>
 2f4:	00200293          	li	t0,2
 2f8:	fe5214e3          	bne	tp,t0,2e0 <test_17+0x4>
 2fc:	08f00e93          	li	t4,143
 300:	01100193          	li	gp,17
 304:	1ddf1463          	bne	t5,t4,4cc <fail>

00000308 <test_18>:
 308:	00000213          	li	tp,0
 30c:	00e00093          	li	ra,14
 310:	00000013          	nop
 314:	00b00113          	li	sp,11
 318:	00000013          	nop
 31c:	02208f33          	mul	t5,ra,sp
 320:	00120213          	addi	tp,tp,1 # 1 <_start+0x1>
 324:	00200293          	li	t0,2
 328:	fe5212e3          	bne	tp,t0,30c <test_18+0x4>
 32c:	09a00e93          	li	t4,154
 330:	01200193          	li	gp,18
 334:	19df1c63          	bne	t5,t4,4cc <fail>

00000338 <test_19>:
 338:	00000213          	li	tp,0
 33c:	00f00093          	li	ra,15
 340:	00000013          	nop
 344:	00000013          	nop
 348:	00b00113          	li	sp,11
 34c:	02208f33          	mul	t5,ra,sp
 350:	00120213          	addi	tp,tp,1 # 1 <_start+0x1>
 354:	00200293          	li	t0,2
 358:	fe5212e3          	bne	tp,t0,33c <test_19+0x4>
 35c:	0a500e93          	li	t4,165
 360:	01300193          	li	gp,19
 364:	17df1463          	bne	t5,t4,4cc <fail>

00000368 <test_20>:
 368:	00000213          	li	tp,0
 36c:	00b00113          	li	sp,11
 370:	00d00093          	li	ra,13
 374:	02208f33          	mul	t5,ra,sp
 378:	00120213          	addi	tp,tp,1 # 1 <_start+0x1>
 37c:	00200293          	li	t0,2
 380:	fe5216e3          	bne	tp,t0,36c <test_20+0x4>
 384:	08f00e93          	li	t4,143
 388:	01400193          	li	gp,20
 38c:	15df1063          	bne	t5,t4,4cc <fail>

00000390 <test_21>:
 390:	00000213          	li	tp,0
 394:	00b00113          	li	sp,11
 398:	00e00093          	li	ra,14
 39c:	00000013          	nop
 3a0:	02208f33          	mul	t5,ra,sp
 3a4:	00120213          	addi	tp,tp,1 # 1 <_start+0x1>
 3a8:	00200293          	li	t0,2
 3ac:	fe5214e3          	bne	tp,t0,394 <test_21+0x4>
 3b0:	09a00e93          	li	t4,154
 3b4:	01500193          	li	gp,21
 3b8:	11df1a63          	bne	t5,t4,4cc <fail>

000003bc <test_22>:
 3bc:	00000213          	li	tp,0
 3c0:	00b00113          	li	sp,11
 3c4:	00f00093          	li	ra,15
 3c8:	00000013          	nop
 3cc:	00000013          	nop
 3d0:	02208f33          	mul	t5,ra,sp
 3d4:	00120213          	addi	tp,tp,1 # 1 <_start+0x1>
 3d8:	00200293          	li	t0,2
 3dc:	fe5212e3          	bne	tp,t0,3c0 <test_22+0x4>
 3e0:	0a500e93          	li	t4,165
 3e4:	01600193          	li	gp,22
 3e8:	0fdf1263          	bne	t5,t4,4cc <fail>

000003ec <test_23>:
 3ec:	00000213          	li	tp,0
 3f0:	00b00113          	li	sp,11
 3f4:	00000013          	nop
 3f8:	00d00093          	li	ra,13
 3fc:	02208f33          	mul	t5,ra,sp
 400:	00120213          	addi	tp,tp,1 # 1 <_start+0x1>
 404:	00200293          	li	t0,2
 408:	fe5214e3          	bne	tp,t0,3f0 <test_23+0x4>
 40c:	08f00e93          	li	t4,143
 410:	01700193          	li	gp,23
 414:	0bdf1c63          	bne	t5,t4,4cc <fail>

00000418 <test_24>:
 418:	00000213          	li	tp,0
 41c:	00b00113          	li	sp,11
 420:	00000013          	nop
 424:	00e00093          	li	ra,14
 428:	00000013          	nop
 42c:	02208f33          	mul	t5,ra,sp
 430:	00120213          	addi	tp,tp,1 # 1 <_start+0x1>
 434:	00200293          	li	t0,2
 438:	fe5212e3          	bne	tp,t0,41c <test_24+0x4>
 43c:	09a00e93          	li	t4,154
 440:	01800193          	li	gp,24
 444:	09df1463          	bne	t5,t4,4cc <fail>

00000448 <test_25>:
 448:	00000213          	li	tp,0
 44c:	00b00113          	li	sp,11
 450:	00000013          	nop
 454:	00000013          	nop
 458:	00f00093          	li	ra,15
 45c:	02208f33          	mul	t5,ra,sp
 460:	00120213          	addi	tp,tp,1 # 1 <_start+0x1>
 464:	00200293          	li	t0,2
 468:	fe5212e3          	bne	tp,t0,44c <test_25+0x4>
 46c:	0a500e93          	li	t4,165
 470:	01900193          	li	gp,25
 474:	05df1c63          	bne	t5,t4,4cc <fail>

00000478 <test_26>:
 478:	01f00093          	li	ra,31
 47c:	02100133          	mul	sp,zero,ra
 480:	00000e93          	li	t4,0
 484:	01a00193          	li	gp,26
 488:	05d11263          	bne	sp,t4,4cc <fail>

0000048c <test_27>:
 48c:	02000093          	li	ra,32
 490:	02008133          	mul	sp,ra,zero
 494:	00000e93          	li	t4,0
 498:	01b00193          	li	gp,27
 49c:	03d11863          	bne	sp,t4,4cc <fail>

000004a0 <test_28>:
 4a0:	020000b3          	mul	ra,zero,zero
 4a4:	00000e93          	li	t4,0
 4a8:	01c00193          	li	gp,28
 4ac:	03d09063          	bne	ra,t4,4cc <fail>

000004b0 <test_29>:
 4b0:	02100093          	li	ra,33
 4b4:	02200113          	li	sp,34
 4b8:	02208033          	mul	zero,ra,sp
 4bc:	00000e93          	li	t4,0
 4c0:	01d00193          	li	gp,29
 4c4:	01d01463          	bne	zero,t4,4cc <fail>
 4c8:	00301663          	bne	zero,gp,4d4 <pass>

000004cc <fail>:
 4cc:	1000d073          	csrwi	sstatus,1

000004d0 <loop_fail>:
 4d0:	0000006f          	j	4d0 <loop_fail>

000004d4 <pass>:
 4d4:	1001d073          	csrwi	sstatus,3

000004d8 <loop_pass>:
 4d8:	0000006f          	j	4d8 <loop_pass>
	...

Disassembly of section .tohost:

00000540 <tohost>:
	...

00000580 <fromhost>:
	...
