
/home/ubuntu/tinyriscv/tests/riscv-compliance/build_generated/rv32Zicsr/I-CSRRS-01.elf:     file format elf32-littleriscv


Disassembly of section .text.init:

00000000 <_start>:
   0:	0480006f          	j	48 <reset_vector>

00000004 <trap_vector>:
   4:	34202f73          	csrr	t5,mcause
   8:	00800f93          	li	t6,8
   c:	03ff0863          	beq	t5,t6,3c <write_tohost>
  10:	00900f93          	li	t6,9
  14:	03ff0463          	beq	t5,t6,3c <write_tohost>
  18:	00b00f93          	li	t6,11
  1c:	03ff0063          	beq	t5,t6,3c <write_tohost>
  20:	00000f13          	li	t5,0
  24:	000f0463          	beqz	t5,2c <trap_vector+0x28>
  28:	000f0067          	jr	t5
  2c:	34202f73          	csrr	t5,mcause
  30:	000f5463          	bgez	t5,38 <handle_exception>
  34:	0040006f          	j	38 <handle_exception>

00000038 <handle_exception>:
  38:	5391e193          	ori	gp,gp,1337

0000003c <write_tohost>:
  3c:	00001f17          	auipc	t5,0x1
  40:	fc3f2223          	sw	gp,-60(t5) # 1000 <tohost>
  44:	ff9ff06f          	j	3c <write_tohost>

00000048 <reset_vector>:
  48:	00000193          	li	gp,0
  4c:	00000297          	auipc	t0,0x0
  50:	fb828293          	addi	t0,t0,-72 # 4 <trap_vector>
  54:	30529073          	csrw	mtvec,t0
  58:	30005073          	csrwi	mstatus,0
  5c:	00000297          	auipc	t0,0x0
  60:	02028293          	addi	t0,t0,32 # 7c <begin_testcode>
  64:	34129073          	csrw	mepc,t0
  68:	00000293          	li	t0,0
  6c:	20000337          	lui	t1,0x20000
  70:	01030313          	addi	t1,t1,16 # 20000010 <_end+0x1fffde0c>
  74:	00532023          	sw	t0,0(t1)
  78:	30200073          	mret

0000007c <begin_testcode>:
  7c:	00002797          	auipc	a5,0x2
  80:	f8478793          	addi	a5,a5,-124 # 2000 <begin_signature>
  84:	00100093          	li	ra,1
  88:	00000113          	li	sp,0
  8c:	7ff101b7          	lui	gp,0x7ff10
  90:	fff18193          	addi	gp,gp,-1 # 7ff0ffff <_end+0x7ff0ddfb>
  94:	80000237          	lui	tp,0x80000
  98:	fff00293          	li	t0,-1
  9c:	34001073          	csrw	mscratch,zero
  a0:	3400a0f3          	csrrs	ra,mscratch,ra
  a4:	340010f3          	csrrw	ra,mscratch,zero
  a8:	34012173          	csrrs	sp,mscratch,sp
  ac:	34001173          	csrrw	sp,mscratch,zero
  b0:	3401a1f3          	csrrs	gp,mscratch,gp
  b4:	340011f3          	csrrw	gp,mscratch,zero
  b8:	34022273          	csrrs	tp,mscratch,tp
  bc:	34001273          	csrrw	tp,mscratch,zero
  c0:	3402a2f3          	csrrs	t0,mscratch,t0
  c4:	340012f3          	csrrw	t0,mscratch,zero
  c8:	0007a023          	sw	zero,0(a5)
  cc:	0017a223          	sw	ra,4(a5)
  d0:	0027a423          	sw	sp,8(a5)
  d4:	0037a623          	sw	gp,12(a5)
  d8:	0047a823          	sw	tp,16(a5)
  dc:	0057aa23          	sw	t0,20(a5)
  e0:	00002297          	auipc	t0,0x2
  e4:	f3828293          	addi	t0,t0,-200 # 2018 <test_A2_res>
  e8:	00100593          	li	a1,1
  ec:	00000613          	li	a2,0
  f0:	7ff106b7          	lui	a3,0x7ff10
  f4:	fff68693          	addi	a3,a3,-1 # 7ff0ffff <_end+0x7ff0ddfb>
  f8:	80000737          	lui	a4,0x80000
  fc:	fff00793          	li	a5,-1
 100:	34001073          	csrw	mscratch,zero
 104:	3405a5f3          	csrrs	a1,mscratch,a1
 108:	34062673          	csrrs	a2,mscratch,a2
 10c:	3406a6f3          	csrrs	a3,mscratch,a3
 110:	34072773          	csrrs	a4,mscratch,a4
 114:	3407a7f3          	csrrs	a5,mscratch,a5
 118:	34002873          	csrr	a6,mscratch
 11c:	00b2a023          	sw	a1,0(t0)
 120:	00c2a223          	sw	a2,4(t0)
 124:	00d2a423          	sw	a3,8(t0)
 128:	00e2a623          	sw	a4,12(t0)
 12c:	00f2a823          	sw	a5,16(t0)
 130:	0102aa23          	sw	a6,20(t0)
 134:	00002d17          	auipc	s10,0x2
 138:	efcd0d13          	addi	s10,s10,-260 # 2030 <test_B_res>
 13c:	12345ab7          	lui	s5,0x12345
 140:	678a8a93          	addi	s5,s5,1656 # 12345678 <_end+0x12343474>
 144:	34001073          	csrw	mscratch,zero
 148:	340aab73          	csrrs	s6,mscratch,s5
 14c:	340b2bf3          	csrrs	s7,mscratch,s6
 150:	34001bf3          	csrrw	s7,mscratch,zero
 154:	340bac73          	csrrs	s8,mscratch,s7
 158:	34002cf3          	csrr	s9,mscratch
 15c:	015d2023          	sw	s5,0(s10)
 160:	016d2223          	sw	s6,4(s10)
 164:	017d2423          	sw	s7,8(s10)
 168:	018d2623          	sw	s8,12(s10)
 16c:	019d2823          	sw	s9,16(s10)
 170:	00002097          	auipc	ra,0x2
 174:	ed408093          	addi	ra,ra,-300 # 2044 <test_C_res>
 178:	42727f37          	lui	t5,0x42727
 17c:	e6ff0f13          	addi	t5,t5,-401 # 42726e6f <_end+0x42724c6b>
 180:	340f1073          	csrw	mscratch,t5
 184:	340f2073          	csrs	mscratch,t5
 188:	0000a023          	sw	zero,0(ra)
 18c:	01e0a223          	sw	t5,4(ra)
 190:	00002117          	auipc	sp,0x2
 194:	ebc10113          	addi	sp,sp,-324 # 204c <test_D_res>
 198:	f7ff9fb7          	lui	t6,0xf7ff9
 19c:	818f8f93          	addi	t6,t6,-2024 # f7ff8818 <_end+0xf7ff6614>
 1a0:	340f9073          	csrw	mscratch,t6
 1a4:	34002073          	csrr	zero,mscratch
 1a8:	34002073          	csrr	zero,mscratch
 1ac:	34002ff3          	csrr	t6,mscratch
 1b0:	00012023          	sw	zero,0(sp)
 1b4:	01f12223          	sw	t6,4(sp)
 1b8:	00002117          	auipc	sp,0x2
 1bc:	e9c10113          	addi	sp,sp,-356 # 2054 <test_E_res>
 1c0:	321653b7          	lui	t2,0x32165
 1c4:	49838393          	addi	t2,t2,1176 # 32165498 <_end+0x32163294>
 1c8:	963852b7          	lui	t0,0x96385
 1cc:	27428293          	addi	t0,t0,628 # 96385274 <_end+0x96383070>
 1d0:	34001073          	csrw	mscratch,zero
 1d4:	3402a2f3          	csrrs	t0,mscratch,t0
 1d8:	3403a3f3          	csrrs	t2,mscratch,t2
 1dc:	34042473          	csrrs	s0,mscratch,s0
 1e0:	00512023          	sw	t0,0(sp)
 1e4:	00712223          	sw	t2,4(sp)
 1e8:	00812423          	sw	s0,8(sp)
 1ec:	00002297          	auipc	t0,0x2
 1f0:	e1428293          	addi	t0,t0,-492 # 2000 <begin_signature>
 1f4:	20000337          	lui	t1,0x20000
 1f8:	00830313          	addi	t1,t1,8 # 20000008 <_end+0x1fffde04>
 1fc:	00532023          	sw	t0,0(t1)
 200:	00002297          	auipc	t0,0x2
 204:	e6028293          	addi	t0,t0,-416 # 2060 <end_signature>
 208:	20000337          	lui	t1,0x20000
 20c:	00c30313          	addi	t1,t1,12 # 2000000c <_end+0x1fffde08>
 210:	00532023          	sw	t0,0(t1)
 214:	00100293          	li	t0,1
 218:	20000337          	lui	t1,0x20000
 21c:	01030313          	addi	t1,t1,16 # 20000010 <_end+0x1fffde0c>
 220:	00532023          	sw	t0,0(t1)
 224:	00000013          	nop
 228:	00100193          	li	gp,1
 22c:	00000073          	ecall

00000230 <end_testcode>:
 230:	c0001073          	unimp
	...

Disassembly of section .tohost:

00001000 <tohost>:
	...

00001100 <fromhost>:
	...
