
/home/ubuntu/tinyriscv/tests/riscv-compliance/build_generated/rv32Zicsr/I-CSRRSI-01.elf:     file format elf32-littleriscv


Disassembly of section .text.init:

00000000 <_start>:
   0:	0480006f          	j	48 <reset_vector>

00000004 <trap_vector>:
   4:	34202f73          	csrr	t5,mcause
   8:	00800f93          	li	t6,8
   c:	03ff0863          	beq	t5,t6,3c <write_tohost>
  10:	00900f93          	li	t6,9
  14:	03ff0463          	beq	t5,t6,3c <write_tohost>
  18:	00b00f93          	li	t6,11
  1c:	03ff0063          	beq	t5,t6,3c <write_tohost>
  20:	00000f13          	li	t5,0
  24:	000f0463          	beqz	t5,2c <trap_vector+0x28>
  28:	000f0067          	jr	t5
  2c:	34202f73          	csrr	t5,mcause
  30:	000f5463          	bgez	t5,38 <handle_exception>
  34:	0040006f          	j	38 <handle_exception>

00000038 <handle_exception>:
  38:	5391e193          	ori	gp,gp,1337

0000003c <write_tohost>:
  3c:	00001f17          	auipc	t5,0x1
  40:	fc3f2223          	sw	gp,-60(t5) # 1000 <tohost>
  44:	ff9ff06f          	j	3c <write_tohost>

00000048 <reset_vector>:
  48:	00000193          	li	gp,0
  4c:	00000297          	auipc	t0,0x0
  50:	fb828293          	addi	t0,t0,-72 # 4 <trap_vector>
  54:	30529073          	csrw	mtvec,t0
  58:	30005073          	csrwi	mstatus,0
  5c:	00000297          	auipc	t0,0x0
  60:	02028293          	addi	t0,t0,32 # 7c <begin_testcode>
  64:	34129073          	csrw	mepc,t0
  68:	00000293          	li	t0,0
  6c:	20000337          	lui	t1,0x20000
  70:	01030313          	addi	t1,t1,16 # 20000010 <_end+0x1fffde0c>
  74:	00532023          	sw	t0,0(t1)
  78:	30200073          	mret

0000007c <begin_testcode>:
  7c:	00002797          	auipc	a5,0x2
  80:	f8478793          	addi	a5,a5,-124 # 2000 <begin_signature>
  84:	34001073          	csrw	mscratch,zero
  88:	3400e0f3          	csrrsi	ra,mscratch,1
  8c:	340010f3          	csrrw	ra,mscratch,zero
  90:	34006173          	csrrsi	sp,mscratch,0
  94:	34001173          	csrrw	sp,mscratch,zero
  98:	340fe1f3          	csrrsi	gp,mscratch,31
  9c:	340011f3          	csrrw	gp,mscratch,zero
  a0:	34086273          	csrrsi	tp,mscratch,16
  a4:	34001273          	csrrw	tp,mscratch,zero
  a8:	3407e2f3          	csrrsi	t0,mscratch,15
  ac:	340012f3          	csrrw	t0,mscratch,zero
  b0:	0007a023          	sw	zero,0(a5)
  b4:	0017a223          	sw	ra,4(a5)
  b8:	0027a423          	sw	sp,8(a5)
  bc:	0037a623          	sw	gp,12(a5)
  c0:	0047a823          	sw	tp,16(a5)
  c4:	0057aa23          	sw	t0,20(a5)
  c8:	00002297          	auipc	t0,0x2
  cc:	f5028293          	addi	t0,t0,-176 # 2018 <test_A2_res>
  d0:	34001073          	csrw	mscratch,zero
  d4:	3400e5f3          	csrrsi	a1,mscratch,1
  d8:	34006673          	csrrsi	a2,mscratch,0
  dc:	340fe6f3          	csrrsi	a3,mscratch,31
  e0:	34086773          	csrrsi	a4,mscratch,16
  e4:	3407e7f3          	csrrsi	a5,mscratch,15
  e8:	34006873          	csrrsi	a6,mscratch,0
  ec:	0002a023          	sw	zero,0(t0)
  f0:	00b2a223          	sw	a1,4(t0)
  f4:	00c2a423          	sw	a2,8(t0)
  f8:	00d2a623          	sw	a3,12(t0)
  fc:	00e2a823          	sw	a4,16(t0)
 100:	00f2aa23          	sw	a5,20(t0)
 104:	0102ac23          	sw	a6,24(t0)
 108:	00002097          	auipc	ra,0x2
 10c:	f2c08093          	addi	ra,ra,-212 # 2034 <test_B_res>
 110:	32165a37          	lui	s4,0x32165
 114:	498a0a13          	addi	s4,s4,1176 # 32165498 <_end+0x32163294>
 118:	340a1073          	csrw	mscratch,s4
 11c:	3407e073          	csrsi	mscratch,15
 120:	340a1af3          	csrrw	s5,mscratch,s4
 124:	0000a023          	sw	zero,0(ra)
 128:	0150a223          	sw	s5,4(ra)
 12c:	0140a423          	sw	s4,8(ra)
 130:	00002297          	auipc	t0,0x2
 134:	ed028293          	addi	t0,t0,-304 # 2000 <begin_signature>
 138:	20000337          	lui	t1,0x20000
 13c:	00830313          	addi	t1,t1,8 # 20000008 <_end+0x1fffde04>
 140:	00532023          	sw	t0,0(t1)
 144:	00002297          	auipc	t0,0x2
 148:	efc28293          	addi	t0,t0,-260 # 2040 <end_signature>
 14c:	20000337          	lui	t1,0x20000
 150:	00c30313          	addi	t1,t1,12 # 2000000c <_end+0x1fffde08>
 154:	00532023          	sw	t0,0(t1)
 158:	00100293          	li	t0,1
 15c:	20000337          	lui	t1,0x20000
 160:	01030313          	addi	t1,t1,16 # 20000010 <_end+0x1fffde0c>
 164:	00532023          	sw	t0,0(t1)
 168:	00000013          	nop
 16c:	00100193          	li	gp,1
 170:	00000073          	ecall

00000174 <end_testcode>:
 174:	c0001073          	unimp
	...

Disassembly of section .tohost:

00001000 <tohost>:
	...

00001100 <fromhost>:
	...
